target datalayout = "e-m:e-p270:32:32-p271:32:32-p272:64:64-i64:64-i128:128-f80:128-n8:16:32:64-S128"
target triple = "x86_64-unknown-linux-gnu"

%"struct.folly::dynamic" = type { i32, %"union.folly::dynamic::Data" }
%"union.folly::dynamic::Data" = type { %"class.std::__cxx11::basic_string" }
%"class.std::__cxx11::basic_string" = type { %"struct.std::__cxx11::basic_string<char>::_Alloc_hider", i64, %union.anon }
%"struct.std::__cxx11::basic_string<char>::_Alloc_hider" = type { ptr }
%union.anon = type { i64, [8 x i8] }
%"class.std::basic_string_view" = type { i64, ptr }
%"class.folly::Range" = type { ptr, ptr }
%"class.facebook::velox::core::ITypedExpr" = type { %"class.facebook::velox::ISerializable", %"class.std::shared_ptr", %"class.std::vector.3" }
%"class.facebook::velox::ISerializable" = type { ptr }
%"class.std::shared_ptr" = type { %"class.std::__shared_ptr" }
%"class.std::__shared_ptr" = type { ptr, %"class.std::__shared_count" }
%"class.std::__shared_count" = type { ptr }
%"class.std::vector.3" = type { %"struct.std::_Vector_base.4" }
%"struct.std::_Vector_base.4" = type { %"struct.std::_Vector_base<std::shared_ptr<const facebook::velox::core::ITypedExpr>, std::allocator<std::shared_ptr<const facebook::velox::core::ITypedExpr>>>::_Vector_impl" }
%"struct.std::_Vector_base<std::shared_ptr<const facebook::velox::core::ITypedExpr>, std::allocator<std::shared_ptr<const facebook::velox::core::ITypedExpr>>>::_Vector_impl" = type { %"struct.std::_Vector_base<std::shared_ptr<const facebook::velox::core::ITypedExpr>, std::allocator<std::shared_ptr<const facebook::velox::core::ITypedExpr>>>::_Vector_impl_data" }
%"struct.std::_Vector_base<std::shared_ptr<const facebook::velox::core::ITypedExpr>, std::allocator<std::shared_ptr<const facebook::velox::core::ITypedExpr>>>::_Vector_impl_data" = type { ptr, ptr, ptr }
%"class.facebook::velox::core::CastTypedExpr" = type <{ %"class.facebook::velox::core::ITypedExpr", i8, [7 x i8] }>

@.str.4 = private unnamed_addr constant [14 x i8] c"CastTypedExpr\00", align 1
@.str.18 = private unnamed_addr constant [14 x i8] c"nullOnFailure\00", align 1

; Function Attrs: mustprogress nounwind uwtable
define linkonce_odr noundef i64 @_ZN5folly6detail25constexpr_strlen_internalIcLm0EEEmPKT_i(ptr noundef %s, i32 noundef %0) #2 comdat {
entry:
  %s.addr = alloca ptr, align 8
  %.addr = alloca i32, align 4
  store ptr %s, ptr %s.addr, align 8
  store i32 %0, ptr %.addr, align 4
  %1 = load ptr, ptr %s.addr, align 8
  %call = call i64 @strlen(ptr noundef %1) #20
  ret i64 %call
}

; Function Attrs: mustprogress nounwind uwtable
define linkonce_odr noundef ptr @_ZN5folly7dynamic11GetAddrImplIbE3getERNS0_4DataE(ptr noundef nonnull align 8 dereferenceable(32) %d) #2 comdat align 2 {
entry:
  %d.addr = alloca ptr, align 8
  store ptr %d, ptr %d.addr, align 8
  %0 = load ptr, ptr %d.addr, align 8
  ret ptr %0
}

; Function Attrs: mustprogress nounwind uwtable
define linkonce_odr void @_ZN5folly7dynamic4DataD2Ev(ptr noundef nonnull align 8 dereferenceable(32) %this) unnamed_addr #2 comdat align 2 {
entry:
  %this.addr = alloca ptr, align 8
  store ptr %this, ptr %this.addr, align 8
  ret void
}

; Function Attrs: mustprogress nounwind uwtable
define linkonce_odr noundef i64 @_ZN5folly16constexpr_strlenIcEEmPKT_(ptr noundef %s) #2 comdat {
entry:
  %s.addr = alloca ptr, align 8
  store ptr %s, ptr %s.addr, align 8
  %0 = load ptr, ptr %s.addr, align 8
  %call = call noundef i64 @_ZN5folly6detail25constexpr_strlen_internalIcLm0EEEmPKT_i(ptr noundef %0, i32 noundef 0) #20
  ret i64 %call
}

; Function Attrs: mustprogress nounwind uwtable
define linkonce_odr noundef ptr @_ZN5folly7dynamic10getAddressIbEEPT_v(ptr noundef nonnull align 8 dereferenceable(40) %this) #2 comdat align 2 {
entry:
  %this.addr = alloca ptr, align 8
  store ptr %this, ptr %this.addr, align 8
  %this1 = load ptr, ptr %this.addr, align 8
  %u_ = getelementptr inbounds %"struct.folly::dynamic", ptr %this1, i32 0, i32 1
  %call = call noundef ptr @_ZN5folly7dynamic11GetAddrImplIbE3getERNS0_4DataE(ptr noundef nonnull align 8 dereferenceable(32) %u_) #20
  ret ptr %call
}

; Function Attrs: mustprogress nounwind uwtable
define linkonce_odr void @_ZN5folly7dynamic4DataC2Ev(ptr noundef nonnull align 8 dereferenceable(32) %this) unnamed_addr #2 comdat align 2 {
entry:
  %this.addr = alloca ptr, align 8
  store ptr %this, ptr %this.addr, align 8
  %this1 = load ptr, ptr %this.addr, align 8
  store ptr null, ptr %this1, align 8
  ret void
}

; Function Attrs: noreturn nounwind uwtable
define linkonce_odr hidden void @__clang_call_terminate(ptr noundef %0) #6 comdat {
  %2 = call ptr @__cxa_begin_catch(ptr %0) #20
  call void @_ZSt9terminatev() #27
  unreachable
}

; Function Attrs: mustprogress nounwind uwtable
define linkonce_odr noundef i64 @_ZNSt11char_traitsIcE6lengthEPKc(ptr noundef %__s) #2 comdat align 2 {
entry:
  %__s.addr = alloca ptr, align 8
  store ptr %__s, ptr %__s.addr, align 8
  %0 = load ptr, ptr %__s.addr, align 8
  %call = call i64 @strlen(ptr noundef %0) #20
  ret i64 %call
}

; Function Attrs: mustprogress nounwind uwtable
define linkonce_odr void @_ZN5folly7dynamicD2Ev(ptr noundef nonnull align 8 dereferenceable(40) %this) unnamed_addr #2 comdat align 2 {
entry:
  %this.addr = alloca ptr, align 8
  store ptr %this, ptr %this.addr, align 8
  %this1 = load ptr, ptr %this.addr, align 8
  call void @_ZN5folly7dynamic7destroyEv(ptr noundef nonnull align 8 dereferenceable(40) %this1) #20
  %u_ = getelementptr inbounds %"struct.folly::dynamic", ptr %this1, i32 0, i32 1
  call void @_ZN5folly7dynamic4DataD2Ev(ptr noundef nonnull align 8 dereferenceable(32) %u_) #20
  ret void
}

; Function Attrs: mustprogress nounwind uwtable
define linkonce_odr void @_ZN5folly5RangeIPKcEC2ES2_(ptr noundef nonnull align 8 dereferenceable(16) %this, ptr noundef %str) unnamed_addr #2 comdat align 2 {
entry:
  %this.addr = alloca ptr, align 8
  %str.addr = alloca ptr, align 8
  store ptr %this, ptr %this.addr, align 8
  store ptr %str, ptr %str.addr, align 8
  %this1 = load ptr, ptr %this.addr, align 8
  %b_ = getelementptr inbounds %"class.folly::Range", ptr %this1, i32 0, i32 0
  %0 = load ptr, ptr %str.addr, align 8
  store ptr %0, ptr %b_, align 8
  %e_ = getelementptr inbounds %"class.folly::Range", ptr %this1, i32 0, i32 1
  %1 = load ptr, ptr %str.addr, align 8
  %2 = load ptr, ptr %str.addr, align 8
  %call = call noundef i64 @_ZN5folly16constexpr_strlenIcEEmPKT_(ptr noundef %2) #20
  %add.ptr = getelementptr inbounds i8, ptr %1, i64 %call
  store ptr %add.ptr, ptr %e_, align 8
  ret void
}

; Function Attrs: mustprogress uwtable
define linkonce_odr void @_ZN5folly7dynamicC2IbbEET_(ptr noundef nonnull align 8 dereferenceable(40) %this, i1 noundef zeroext %t) unnamed_addr #0 comdat align 2 {
entry:
  %this.addr = alloca ptr, align 8
  %t.addr = alloca i8, align 1
  store ptr %this, ptr %this.addr, align 8
  %frombool = zext i1 %t to i8
  store i8 %frombool, ptr %t.addr, align 1
  %this1 = load ptr, ptr %this.addr, align 8
  %u_ = getelementptr inbounds %"struct.folly::dynamic", ptr %this1, i32 0, i32 1
  call void @_ZN5folly7dynamic4DataC2Ev(ptr noundef nonnull align 8 dereferenceable(32) %u_)
  %type_ = getelementptr inbounds %"struct.folly::dynamic", ptr %this1, i32 0, i32 0
  store i32 2, ptr %type_, align 8
  %call = call noundef ptr @_ZN5folly7dynamic10getAddressIbEEPT_v(ptr noundef nonnull align 8 dereferenceable(40) %this1) #20
  %0 = load i8, ptr %t.addr, align 1
  %tobool = trunc i8 %0 to i1
  %frombool2 = zext i1 %tobool to i8
  store i8 %frombool2, ptr %call, align 1
  ret void
}

; Function Attrs: mustprogress nounwind uwtable
define linkonce_odr void @_ZNSt17basic_string_viewIcSt11char_traitsIcEEC2EPKc(ptr noundef nonnull align 8 dereferenceable(16) %this, ptr noundef nonnull %__str) unnamed_addr #2 comdat align 2 personality ptr @__gxx_personality_v0 {
entry:
  %this.addr = alloca ptr, align 8
  %__str.addr = alloca ptr, align 8
  store ptr %this, ptr %this.addr, align 8
  store ptr %__str, ptr %__str.addr, align 8
  %this1 = load ptr, ptr %this.addr, align 8
  %_M_len = getelementptr inbounds %"class.std::basic_string_view", ptr %this1, i32 0, i32 0
  %0 = load ptr, ptr %__str.addr, align 8
  %call = invoke noundef i64 @_ZNSt11char_traitsIcE6lengthEPKc(ptr noundef %0)
          to label %invoke.cont unwind label %terminate.lpad

invoke.cont:                                      ; preds = %entry
  store i64 %call, ptr %_M_len, align 8
  %_M_str = getelementptr inbounds %"class.std::basic_string_view", ptr %this1, i32 0, i32 1
  %1 = load ptr, ptr %__str.addr, align 8
  store ptr %1, ptr %_M_str, align 8
  ret void

terminate.lpad:                                   ; preds = %entry
  %2 = landingpad { ptr, i32 }
          catch ptr null
  %3 = extractvalue { ptr, i32 } %2, 0
  call void @__clang_call_terminate(ptr %3) #27
  unreachable
}

; Function Attrs: mustprogress uwtable
define void @_ZNK8facebook5velox4core13CastTypedExpr9serializeEv(ptr noalias sret(%"struct.folly::dynamic") align 8 %agg.result, ptr noundef nonnull align 8 dereferenceable(49) %this) unnamed_addr #0 align 2 personality ptr @__gxx_personality_v0 {
entry:
  %result.ptr = alloca ptr, align 8
  %this.addr = alloca ptr, align 8
  %nrvo = alloca i1, align 1
  %agg.tmp = alloca %"class.std::basic_string_view", align 8
  %ref.tmp = alloca %"struct.folly::dynamic", align 8
  %exn.slot = alloca ptr, align 8
  %ehselector.slot = alloca i32, align 4
  %agg.tmp2 = alloca %"class.folly::Range", align 8
  store ptr %agg.result, ptr %result.ptr, align 8
  store ptr %this, ptr %this.addr, align 8
  %this1 = load ptr, ptr %this.addr, align 8
  store i1 false, ptr %nrvo, align 1
  call void @_ZNSt17basic_string_viewIcSt11char_traitsIcEEC2EPKc(ptr noundef nonnull align 8 dereferenceable(16) %agg.tmp, ptr noundef @.str.4) #20
  %0 = getelementptr inbounds { i64, ptr }, ptr %agg.tmp, i32 0, i32 0
  %1 = load i64, ptr %0, align 8
  %2 = getelementptr inbounds { i64, ptr }, ptr %agg.tmp, i32 0, i32 1
  %3 = load ptr, ptr %2, align 8
  call void @_ZNK8facebook5velox4core10ITypedExpr13serializeBaseESt17basic_string_viewIcSt11char_traitsIcEE(ptr sret(%"struct.folly::dynamic") align 8 %agg.result, ptr noundef nonnull align 8 dereferenceable(48) %this1, i64 %1, ptr %3)
  %nullOnFailure_ = getelementptr inbounds %"class.facebook::velox::core::CastTypedExpr", ptr %this1, i32 0, i32 1
  %4 = load i8, ptr %nullOnFailure_, align 8
  %tobool = trunc i8 %4 to i1
  invoke void @_ZN5folly7dynamicC2IbbEET_(ptr noundef nonnull align 8 dereferenceable(40) %ref.tmp, i1 noundef zeroext %tobool)
          to label %invoke.cont unwind label %lpad

invoke.cont:                                      ; preds = %entry
  invoke void @_ZN5folly5RangeIPKcEC2ES2_(ptr noundef nonnull align 8 dereferenceable(16) %agg.tmp2, ptr noundef @.str.18)
          to label %invoke.cont4 unwind label %lpad3

invoke.cont4:                                     ; preds = %invoke.cont
  %5 = getelementptr inbounds { ptr, ptr }, ptr %agg.tmp2, i32 0, i32 0
  %6 = load ptr, ptr %5, align 8
  %7 = getelementptr inbounds { ptr, ptr }, ptr %agg.tmp2, i32 0, i32 1
  %8 = load ptr, ptr %7, align 8
  %call = invoke noundef nonnull align 8 dereferenceable(40) ptr @_ZNR5folly7dynamicixENS_5RangeIPKcEE(ptr noundef nonnull align 8 dereferenceable(40) %agg.result, ptr %6, ptr %8)
          to label %invoke.cont5 unwind label %lpad3

invoke.cont5:                                     ; preds = %invoke.cont4
  %call6 = call noundef nonnull align 8 dereferenceable(40) ptr @_ZN5folly7dynamicaSEOS0_(ptr noundef nonnull align 8 dereferenceable(40) %call, ptr noundef nonnull align 8 dereferenceable(40) %ref.tmp) #20
  call void @_ZN5folly7dynamicD2Ev(ptr noundef nonnull align 8 dereferenceable(40) %ref.tmp) #20
  store i1 true, ptr %nrvo, align 1
  %nrvo.val = load i1, ptr %nrvo, align 1
  br i1 %nrvo.val, label %nrvo.skipdtor, label %nrvo.unused

lpad:                                             ; preds = %entry
  %9 = landingpad { ptr, i32 }
          cleanup
  %10 = extractvalue { ptr, i32 } %9, 0
  store ptr %10, ptr %exn.slot, align 8
  %11 = extractvalue { ptr, i32 } %9, 1
  store i32 %11, ptr %ehselector.slot, align 4
  br label %ehcleanup

lpad3:                                            ; preds = %invoke.cont4, %invoke.cont
  %12 = landingpad { ptr, i32 }
          cleanup
  %13 = extractvalue { ptr, i32 } %12, 0
  store ptr %13, ptr %exn.slot, align 8
  %14 = extractvalue { ptr, i32 } %12, 1
  store i32 %14, ptr %ehselector.slot, align 4
  call void @_ZN5folly7dynamicD2Ev(ptr noundef nonnull align 8 dereferenceable(40) %ref.tmp) #20
  br label %ehcleanup

nrvo.unused:                                      ; preds = %invoke.cont5
  call void @_ZN5folly7dynamicD2Ev(ptr noundef nonnull align 8 dereferenceable(40) %agg.result) #20
  br label %nrvo.skipdtor

nrvo.skipdtor:                                    ; preds = %nrvo.unused, %invoke.cont5
  ret void

ehcleanup:                                        ; preds = %lpad3, %lpad
  call void @_ZN5folly7dynamicD2Ev(ptr noundef nonnull align 8 dereferenceable(40) %agg.result) #20
  br label %eh.resume

eh.resume:                                        ; preds = %ehcleanup
  %exn = load ptr, ptr %exn.slot, align 8
  %sel = load i32, ptr %ehselector.slot, align 4
  %lpad.val = insertvalue { ptr, i32 } poison, ptr %exn, 0
  %lpad.val7 = insertvalue { ptr, i32 } %lpad.val, i32 %sel, 1
  resume { ptr, i32 } %lpad.val7
}